; Function Attrs: nounwind uwtable
define hidden void @_ZTv0_n24_N2cv4face18FacemarkKazemiImplD1Ev(ptr noundef %0) unnamed_addr #8 align 2 {
  %2 = load ptr, ptr %0, align 8, !tbaa !3
  %3 = getelementptr inbounds i8, ptr %2, i64 -24
  %4 = load i64, ptr %3, align 8
  %5 = getelementptr inbounds i8, ptr %0, i64 %4
  tail call void @_ZN2cv4face18FacemarkKazemiImplD2Ev(ptr noundef nonnull align 8 dereferenceable(216) %5, ptr noundef nonnull @_ZTTN2cv4face18FacemarkKazemiImplE) #28
  tail call void @_ZN2cv9AlgorithmD2Ev(ptr noundef nonnull align 8 dereferenceable(216) %5) #28
  ret void
}